target datalayout = "e-m:e-p270:32:32-p271:32:32-p272:64:64-i64:64-i128:128-f80:128-n8:16:32:64-S128"
target triple = "x86_64-pc-linux-gnu"

%struct.dmg_koly_block = type <{ i32, i32, i32, i32, i64, i64, i64, i64, i64, i32, i32, [16 x i8], [34 x i32], i64, i64, [120 x i8], [34 x i32], i32, i64, [3 x i32] }>
%struct.cli_ctx_tag = type { ptr, ptr, ptr, ptr, ptr, ptr, ptr, i64, ptr, i32, i32, ptr, i32, i32, ptr, [16 x i8], ptr, ptr, ptr, ptr, ptr, ptr, %struct.timeval, i8, i8 }
%struct.timeval = type { i64, i64 }
%struct.cl_fmap = type { ptr, ptr, ptr, i64, i64, i64, i64, i8, i8, i8, i64, i64, i64, i64, ptr, ptr, ptr, ptr, ptr, ptr, ptr, i8, [16 x i8], i8, [20 x i8], i8, [32 x i8], ptr, ptr }

@.str.48 = private unnamed_addr constant [49 x i8] c"cli_scandmg: Can't create temporary file %s: %s\0A\00", align 1
@.str.83 = private unnamed_addr constant [51 x i8] c"cli_scandmg: Failed getting XML from map, len %lu\0A\00", align 1
@.str.84 = private unnamed_addr constant [11 x i8] c"%s/toc.xml\00", align 1
@.str.85 = private unnamed_addr constant [35 x i8] c"cli_scandmg: Extracting XML as %s\0A\00", align 1
@.str.86 = private unnamed_addr constant [37 x i8] c"cli_scandmg: Not all bytes written!\0A\00", align 1

; Function Attrs: nounwind uwtable
define internal ptr @fmap_need_off_once(ptr noundef %0, i64 noundef %1, i64 noundef %2) #0 {
  %4 = alloca ptr, align 8
  %5 = alloca i64, align 8
  %6 = alloca i64, align 8
  store ptr %0, ptr %4, align 8
  store i64 %1, ptr %5, align 8
  store i64 %2, ptr %6, align 8
  %7 = load ptr, ptr %4, align 8
  %8 = getelementptr inbounds %struct.cl_fmap, ptr %7, i32 0, i32 15
  %9 = load ptr, ptr %8, align 8
  %10 = load ptr, ptr %4, align 8
  %11 = load i64, ptr %5, align 8
  %12 = load i64, ptr %6, align 8
  %13 = call ptr %9(ptr noundef %10, i64 noundef %11, i64 noundef %12, i32 noundef 0)
  ret ptr %13
}

; Function Attrs: nounwind uwtable
define internal ptr @fmap_need_off_once_len(ptr noundef %0, i64 noundef %1, i64 noundef %2, ptr noundef %3) #0 {
  %5 = alloca ptr, align 8
  %6 = alloca ptr, align 8
  %7 = alloca i64, align 8
  %8 = alloca i64, align 8
  %9 = alloca ptr, align 8
  %10 = alloca ptr, align 8
  store ptr %0, ptr %6, align 8
  store i64 %1, ptr %7, align 8
  store i64 %2, ptr %8, align 8
  store ptr %3, ptr %9, align 8
  %11 = load i64, ptr %7, align 8
  %12 = load ptr, ptr %6, align 8
  %13 = getelementptr inbounds %struct.cl_fmap, ptr %12, i32 0, i32 13
  %14 = load i64, ptr %13, align 8
  %15 = icmp uge i64 %11, %14
  br i1 %15, label %16, label %18

16:                                               ; preds = %4
  %17 = load ptr, ptr %9, align 8
  store i64 0, ptr %17, align 8
  store ptr null, ptr %5, align 8
  br label %46

18:                                               ; preds = %4
  %19 = load i64, ptr %8, align 8
  %20 = load ptr, ptr %6, align 8
  %21 = getelementptr inbounds %struct.cl_fmap, ptr %20, i32 0, i32 13
  %22 = load i64, ptr %21, align 8
  %23 = load i64, ptr %7, align 8
  %24 = sub i64 %22, %23
  %25 = icmp ugt i64 %19, %24
  br i1 %25, label %26, label %32

26:                                               ; preds = %18
  %27 = load ptr, ptr %6, align 8
  %28 = getelementptr inbounds %struct.cl_fmap, ptr %27, i32 0, i32 13
  %29 = load i64, ptr %28, align 8
  %30 = load i64, ptr %7, align 8
  %31 = sub i64 %29, %30
  store i64 %31, ptr %8, align 8
  br label %32

32:                                               ; preds = %26, %18
  %33 = load ptr, ptr %6, align 8
  %34 = load i64, ptr %7, align 8
  %35 = load i64, ptr %8, align 8
  %36 = call ptr @fmap_need_off_once(ptr noundef %33, i64 noundef %34, i64 noundef %35)
  store ptr %36, ptr %10, align 8
  %37 = load ptr, ptr %10, align 8
  %38 = icmp ne ptr %37, null
  br i1 %38, label %39, label %41

39:                                               ; preds = %32
  %40 = load i64, ptr %8, align 8
  br label %42

41:                                               ; preds = %32
  br label %42

42:                                               ; preds = %41, %39
  %43 = phi i64 [ %40, %39 ], [ 0, %41 ]
  %44 = load ptr, ptr %9, align 8
  store i64 %43, ptr %44, align 8
  %45 = load ptr, ptr %10, align 8
  store ptr %45, ptr %5, align 8
  br label %46

46:                                               ; preds = %42, %16
  %47 = load ptr, ptr %5, align 8
  ret ptr %47
}

; Function Attrs: nounwind uwtable
define internal i32 @dmg_extract_xml(ptr noundef %0, ptr noundef %1, ptr noundef %2) #0 {
  %4 = alloca i32, align 4
  %5 = alloca ptr, align 8
  %6 = alloca ptr, align 8
  %7 = alloca ptr, align 8
  %8 = alloca ptr, align 8
  %9 = alloca ptr, align 8
  %10 = alloca i64, align 8
  %11 = alloca i64, align 8
  %12 = alloca i32, align 4
  %13 = alloca [128 x i8], align 16
  store ptr %0, ptr %5, align 8
  store ptr %1, ptr %6, align 8
  store ptr %2, ptr %7, align 8
  %14 = load ptr, ptr %5, align 8
  %15 = getelementptr inbounds %struct.cli_ctx_tag, ptr %14, i32 0, i32 14
  %16 = load ptr, ptr %15, align 8
  %17 = load ptr, ptr %7, align 8
  %18 = getelementptr inbounds %struct.dmg_koly_block, ptr %17, i32 0, i32 13
  %19 = load i64, ptr %18, align 1
  %20 = load ptr, ptr %7, align 8
  %21 = getelementptr inbounds %struct.dmg_koly_block, ptr %20, i32 0, i32 14
  %22 = load i64, ptr %21, align 1
  %23 = call ptr @fmap_need_off_once_len(ptr noundef %16, i64 noundef %19, i64 noundef %22, ptr noundef %11)
  store ptr %23, ptr %9, align 8
  %24 = load ptr, ptr %9, align 8
  %25 = icmp ne ptr %24, null
  br i1 %25, label %26, label %32

26:                                               ; preds = %3
  %27 = load i64, ptr %11, align 8
  %28 = load ptr, ptr %7, align 8
  %29 = getelementptr inbounds %struct.dmg_koly_block, ptr %28, i32 0, i32 14
  %30 = load i64, ptr %29, align 1
  %31 = icmp ne i64 %27, %30
  br i1 %31, label %32, label %36

32:                                               ; preds = %26, %3
  %33 = load ptr, ptr %7, align 8
  %34 = getelementptr inbounds %struct.dmg_koly_block, ptr %33, i32 0, i32 14
  %35 = load i64, ptr %34, align 1
  call void (ptr, ...) @cli_errmsg(ptr noundef @.str.83, i64 noundef %35)
  store i32 19, ptr %4, align 4
  br label %81

36:                                               ; preds = %26
  %37 = load ptr, ptr %6, align 8
  %38 = call i64 @strlen(ptr noundef %37) #10
  %39 = add i64 %38, 1
  %40 = add i64 %39, 7
  %41 = add i64 %40, 1
  store i64 %41, ptr %10, align 8
  %42 = load i64, ptr %10, align 8
  %43 = call ptr @cli_max_malloc(i64 noundef %42)
  store ptr %43, ptr %8, align 8
  %44 = icmp ne ptr %43, null
  br i1 %44, label %46, label %45

45:                                               ; preds = %36
  store i32 20, ptr %4, align 4
  br label %81

46:                                               ; preds = %36
  %47 = load ptr, ptr %8, align 8
  %48 = load i64, ptr %10, align 8
  %49 = load ptr, ptr %6, align 8
  %50 = call i32 (ptr, i64, ptr, ...) @snprintf(ptr noundef %47, i64 noundef %48, ptr noundef @.str.84, ptr noundef %49) #8
  %51 = load ptr, ptr %8, align 8
  call void (ptr, ...) @cli_dbgmsg(ptr noundef @.str.85, ptr noundef %51)
  %52 = load ptr, ptr %8, align 8
  %53 = call i32 (ptr, i32, ...) @open(ptr noundef %52, i32 noundef 706, i32 noundef 384)
  store i32 %53, ptr %12, align 4
  %54 = icmp slt i32 %53, 0
  br i1 %54, label %55, label %62

55:                                               ; preds = %46
  %56 = load ptr, ptr %8, align 8
  %57 = call ptr @__errno_location() #11
  %58 = load i32, ptr %57, align 4
  %59 = getelementptr inbounds [128 x i8], ptr %13, i64 0, i64 0
  %60 = call ptr @cli_strerror(i32 noundef %58, ptr noundef %59, i64 noundef 128)
  call void (ptr, ...) @cli_errmsg(ptr noundef @.str.48, ptr noundef %56, ptr noundef %60)
  %61 = load ptr, ptr %8, align 8
  call void @free(ptr noundef %61) #8
  store i32 17, ptr %4, align 4
  br label %81

62:                                               ; preds = %46
  %63 = load i32, ptr %12, align 4
  %64 = load ptr, ptr %9, align 8
  %65 = load ptr, ptr %7, align 8
  %66 = getelementptr inbounds %struct.dmg_koly_block, ptr %65, i32 0, i32 14
  %67 = load i64, ptr %66, align 1
  %68 = call i64 @cli_writen(i32 noundef %63, ptr noundef %64, i64 noundef %67)
  %69 = load ptr, ptr %7, align 8
  %70 = getelementptr inbounds %struct.dmg_koly_block, ptr %69, i32 0, i32 14
  %71 = load i64, ptr %70, align 1
  %72 = icmp ne i64 %68, %71
  br i1 %72, label %73, label %77

73:                                               ; preds = %62
  call void (ptr, ...) @cli_errmsg(ptr noundef @.str.86)
  %74 = load i32, ptr %12, align 4
  %75 = call i32 @close(i32 noundef %74)
  %76 = load ptr, ptr %8, align 8
  call void @free(ptr noundef %76) #8
  store i32 14, ptr %4, align 4
  br label %81

77:                                               ; preds = %62
  %78 = load i32, ptr %12, align 4
  %79 = call i32 @close(i32 noundef %78)
  %80 = load ptr, ptr %8, align 8
  call void @free(ptr noundef %80) #8
  store i32 0, ptr %4, align 4
  br label %81

81:                                               ; preds = %77, %73, %55, %45, %32
  %82 = load i32, ptr %4, align 4
  ret i32 %82
}