; Function Attrs: nounwind uwtable
define internal fastcc noundef i32 @dmg_extract_xml(ptr %.96.val, ptr noundef %0, ptr nocapture noundef readonly %1) unnamed_addr #0 {
  %3 = alloca [128 x i8], align 16
  %4 = getelementptr inbounds i8, ptr %1, i64 216
  %5 = load i64, ptr %4, align 1
  %6 = getelementptr inbounds i8, ptr %1, i64 224
  %7 = getelementptr inbounds i8, ptr %.96.val, i64 88
  %8 = load i64, ptr %7, align 8
  %.not.i = icmp ugt i64 %8, %5
  %.pre = load i64, ptr %6, align 1
  br i1 %.not.i, label %fmap_need_off_once_len.exit, label %fmap_need_off_once_len.exit.thread

fmap_need_off_once_len.exit:                      ; preds = %2
  %9 = sub i64 %8, %5
  %spec.select.i = tail call i64 @llvm.umin.i64(i64 %9, i64 %.pre)
  %10 = getelementptr inbounds i8, ptr %.96.val, i64 104
  %11 = load ptr, ptr %10, align 8
  %12 = tail call ptr %11(ptr noundef nonnull %.96.val, i64 noundef %5, i64 noundef %spec.select.i, i32 noundef 0) #14
  %.not = icmp ne ptr %12, null
  %.pre4 = load i64, ptr %6, align 1
  %.not26 = icmp eq i64 %spec.select.i, %.pre4
  %or.cond = select i1 %.not, i1 %.not26, i1 false
  br i1 %or.cond, label %14, label %fmap_need_off_once_len.exit.thread

fmap_need_off_once_len.exit.thread:               ; preds = %2, %fmap_need_off_once_len.exit
  %13 = phi i64 [ %.pre, %2 ], [ %.pre4, %fmap_need_off_once_len.exit ]
  tail call void (ptr, ...) @cli_errmsg(ptr noundef nonnull @.str.83, i64 noundef %13) #14
  br label %34

14:                                               ; preds = %fmap_need_off_once_len.exit
  %15 = tail call i64 @strlen(ptr noundef nonnull dereferenceable(1) %0) #16
  %16 = add i64 %15, 9
  %17 = tail call ptr @cli_max_malloc(i64 noundef %16) #14
  %.not27 = icmp eq ptr %17, null
  br i1 %.not27, label %34, label %18

18:                                               ; preds = %14
  %19 = tail call i32 (ptr, i64, ptr, ...) @snprintf(ptr noundef nonnull %17, i64 noundef %16, ptr noundef nonnull @.str.84, ptr noundef %0) #14
  tail call void (ptr, ...) @cli_dbgmsg(ptr noundef nonnull @.str.85, ptr noundef nonnull %17) #14
  %20 = tail call i32 (ptr, i32, ...) @open(ptr noundef nonnull %17, i32 noundef 706, i32 noundef 384) #14
  %21 = icmp slt i32 %20, 0
  br i1 %21, label %22, label %26

22:                                               ; preds = %18
  %23 = tail call ptr @__errno_location() #17
  %24 = load i32, ptr %23, align 4
  %25 = call ptr @cli_strerror(i32 noundef %24, ptr noundef nonnull %3, i64 noundef 128) #14
  call void (ptr, ...) @cli_errmsg(ptr noundef nonnull @.str.48, ptr noundef nonnull %17, ptr noundef %25) #14
  call void @free(ptr noundef nonnull %17) #14
  br label %34

26:                                               ; preds = %18
  %27 = load i64, ptr %6, align 1
  %28 = tail call i64 @cli_writen(i32 noundef %20, ptr noundef nonnull %12, i64 noundef %27) #14
  %29 = load i64, ptr %6, align 1
  %.not28 = icmp eq i64 %28, %29
  br i1 %.not28, label %32, label %30

30:                                               ; preds = %26
  tail call void (ptr, ...) @cli_errmsg(ptr noundef nonnull @.str.86) #14
  %31 = tail call i32 @close(i32 noundef %20) #14
  tail call void @free(ptr noundef nonnull %17) #14
  br label %34

32:                                               ; preds = %26
  %33 = tail call i32 @close(i32 noundef %20) #14
  tail call void @free(ptr noundef nonnull %17) #14
  br label %34

34:                                               ; preds = %14, %32, %30, %22, %fmap_need_off_once_len.exit.thread
  %.0 = phi i32 [ 19, %fmap_need_off_once_len.exit.thread ], [ 17, %22 ], [ 14, %30 ], [ 0, %32 ], [ 20, %14 ]
  ret i32 %.0
}